target datalayout = "e-m:e-p270:32:32-p271:32:32-p272:64:64-i64:64-i128:128-f80:128-n8:16:32:64-S128"
target triple = "x86_64-pc-linux-gnu"

@base_yyout = external global ptr, align 8
@.str = private unnamed_addr constant [3 x i8] c"%s\00", align 1

; Function Attrs: nounwind uwtable
define dso_local void @output_line_number() #0 {
  %1 = alloca ptr, align 8
  call void @llvm.lifetime.start.p0(i64 8, ptr %1) #5
  %2 = call ptr @hashline_number()
  store ptr %2, ptr %1, align 8
  %3 = load ptr, ptr @base_yyout, align 8
  %4 = load ptr, ptr %1, align 8
  %5 = call i32 (ptr, ptr, ...) @pg_fprintf(ptr noundef %3, ptr noundef @.str, ptr noundef %4)
  call void @llvm.lifetime.end.p0(i64 8, ptr %1) #5
  ret void
}

; Function Attrs: nounwind uwtable
define dso_local void @output_simple_statement(ptr noundef %0, i32 noundef %1) #0 {
  %3 = alloca ptr, align 8
  %4 = alloca i32, align 4
  store ptr %0, ptr %3, align 8
  store i32 %1, ptr %4, align 4
  %5 = load ptr, ptr %3, align 8
  call void @output_escaped_str(ptr noundef %5, i1 noundef zeroext false)
  %6 = load i32, ptr %4, align 4
  %7 = icmp ne i32 %6, 0
  br i1 %7, label %8, label %10

8:                                                ; preds = %2
  %9 = load i32, ptr %4, align 4
  call void @whenever_action(i32 noundef %9)
  br label %10

10:                                               ; preds = %8, %2
  call void @output_line_number()
  ret void
}