; Function Attrs: nounwind uwtable
define dso_local void @output_simple_statement(ptr noundef readonly captures(none) %0, i32 noundef %1) local_unnamed_addr #0 {
  tail call fastcc void @output_escaped_str(ptr noundef %0, i1 noundef zeroext false)
  %.not = icmp eq i32 %1, 0
  br i1 %.not, label %4, label %3

3:                                                ; preds = %2
  tail call void @whenever_action(i32 noundef %1)
  br label %4

4:                                                ; preds = %3, %2
  %5 = tail call ptr @hashline_number()
  %6 = load ptr, ptr @base_yyout, align 8
  %7 = tail call i32 (ptr, ptr, ...) @pg_fprintf(ptr noundef %6, ptr noundef nonnull @.str, ptr noundef %5) #7
  ret void
}